; ModuleID = '22/187.c'
source_filename = "22/187.c"
target datalayout = "e-m:e-p270:32:32-p271:32:32-p272:64:64-i64:64-f80:128-n8:16:32:64-S128"
target triple = "x86_64-pc-linux-gnu"

@.str = private unnamed_addr constant [3 x i8] c"No\00", align 1
@.str.1 = private unnamed_addr constant [3 x i8] c"%d\00", align 1

; Function Attrs: noinline nounwind uwtable
define dso_local void @main() #0 {
  %1 = alloca [100 x i32], align 16
  %2 = alloca i32, align 4
  %3 = alloca i32, align 4
  %4 = alloca i32, align 4
  %5 = alloca i32, align 4
  %6 = alloca i32, align 4
  %7 = alloca [10000 x i8], align 16
  %8 = bitcast [100 x i32]* %1 to i8*
  call void @llvm.memset.p0i8.i64(i8* align 16 %8, i8 0, i64 400, i1 false)
  store i32 0, i32* %4, align 4
  store i32 1, i32* %6, align 4
  %9 = getelementptr inbounds [10000 x i8], [10000 x i8]* %7, i64 0, i64 0
  %10 = call i32 (i8*, ...) bitcast (i32 (...)* @gets to i32 (i8*, ...)*)(i8* %9)
  store i32 0, i32* %2, align 4
  br label %11

11:                                               ; preds = %53, %0
  %12 = load i32, i32* %2, align 4
  %13 = sext i32 %12 to i64
  %14 = getelementptr inbounds [10000 x i8], [10000 x i8]* %7, i64 0, i64 %13
  %15 = load i8, i8* %14, align 1
  %16 = sext i8 %15 to i32
  %17 = icmp ne i32 %16, 0
  br i1 %17, label %18, label %56

18:                                               ; preds = %11
  %19 = load i32, i32* %2, align 4
  %20 = sext i32 %19 to i64
  %21 = getelementptr inbounds [10000 x i8], [10000 x i8]* %7, i64 0, i64 %20
  %22 = load i8, i8* %21, align 1
  %23 = sext i8 %22 to i32
  %24 = icmp ne i32 %23, 44
  br i1 %24, label %25, label %41

25:                                               ; preds = %18
  %26 = load i32, i32* %4, align 4
  %27 = sext i32 %26 to i64
  %28 = getelementptr inbounds [100 x i32], [100 x i32]* %1, i64 0, i64 %27
  %29 = load i32, i32* %28, align 4
  %30 = mul nsw i32 %29, 10
  %31 = load i32, i32* %2, align 4
  %32 = sext i32 %31 to i64
  %33 = getelementptr inbounds [10000 x i8], [10000 x i8]* %7, i64 0, i64 %32
  %34 = load i8, i8* %33, align 1
  %35 = sext i8 %34 to i32
  %36 = add nsw i32 %30, %35
  %37 = sub nsw i32 %36, 48
  %38 = load i32, i32* %4, align 4
  %39 = sext i32 %38 to i64
  %40 = getelementptr inbounds [100 x i32], [100 x i32]* %1, i64 0, i64 %39
  store i32 %37, i32* %40, align 4
  br label %52

41:                                               ; preds = %18
  %42 = load i32, i32* %2, align 4
  %43 = sext i32 %42 to i64
  %44 = getelementptr inbounds [10000 x i8], [10000 x i8]* %7, i64 0, i64 %43
  %45 = load i8, i8* %44, align 1
  %46 = sext i8 %45 to i32
  %47 = icmp eq i32 %46, 44
  br i1 %47, label %48, label %51

48:                                               ; preds = %41
  %49 = load i32, i32* %4, align 4
  %50 = add nsw i32 %49, 1
  store i32 %50, i32* %4, align 4
  br label %51

51:                                               ; preds = %48, %41
  br label %52

52:                                               ; preds = %51, %25
  br label %53

53:                                               ; preds = %52
  %54 = load i32, i32* %2, align 4
  %55 = add nsw i32 %54, 1
  store i32 %55, i32* %2, align 4
  br label %11

56:                                               ; preds = %11
  store i32 0, i32* %2, align 4
  br label %57

57:                                               ; preds = %101, %56
  %58 = load i32, i32* %2, align 4
  %59 = load i32, i32* %4, align 4
  %60 = add nsw i32 %59, 1
  %61 = icmp slt i32 %58, %60
  br i1 %61, label %62, label %104

62:                                               ; preds = %57
  store i32 0, i32* %3, align 4
  br label %63

63:                                               ; preds = %97, %62
  %64 = load i32, i32* %3, align 4
  %65 = load i32, i32* %4, align 4
  %66 = icmp slt i32 %64, %65
  br i1 %66, label %67, label %100

67:                                               ; preds = %63
  %68 = load i32, i32* %3, align 4
  %69 = sext i32 %68 to i64
  %70 = getelementptr inbounds [100 x i32], [100 x i32]* %1, i64 0, i64 %69
  %71 = load i32, i32* %70, align 4
  %72 = load i32, i32* %3, align 4
  %73 = add nsw i32 %72, 1
  %74 = sext i32 %73 to i64
  %75 = getelementptr inbounds [100 x i32], [100 x i32]* %1, i64 0, i64 %74
  %76 = load i32, i32* %75, align 4
  %77 = icmp slt i32 %71, %76
  br i1 %77, label %78, label %96

78:                                               ; preds = %67
  %79 = load i32, i32* %3, align 4
  %80 = sext i32 %79 to i64
  %81 = getelementptr inbounds [100 x i32], [100 x i32]* %1, i64 0, i64 %80
  %82 = load i32, i32* %81, align 4
  store i32 %82, i32* %5, align 4
  %83 = load i32, i32* %3, align 4
  %84 = add nsw i32 %83, 1
  %85 = sext i32 %84 to i64
  %86 = getelementptr inbounds [100 x i32], [100 x i32]* %1, i64 0, i64 %85
  %87 = load i32, i32* %86, align 4
  %88 = load i32, i32* %3, align 4
  %89 = sext i32 %88 to i64
  %90 = getelementptr inbounds [100 x i32], [100 x i32]* %1, i64 0, i64 %89
  store i32 %87, i32* %90, align 4
  %91 = load i32, i32* %5, align 4
  %92 = load i32, i32* %3, align 4
  %93 = add nsw i32 %92, 1
  %94 = sext i32 %93 to i64
  %95 = getelementptr inbounds [100 x i32], [100 x i32]* %1, i64 0, i64 %94
  store i32 %91, i32* %95, align 4
  br label %96

96:                                               ; preds = %78, %67
  br label %97

97:                                               ; preds = %96
  %98 = load i32, i32* %3, align 4
  %99 = add nsw i32 %98, 1
  store i32 %99, i32* %3, align 4
  br label %63

100:                                              ; preds = %63
  br label %101

101:                                              ; preds = %100
  %102 = load i32, i32* %2, align 4
  %103 = add nsw i32 %102, 1
  store i32 %103, i32* %2, align 4
  br label %57

104:                                              ; preds = %57
  %105 = load i32, i32* %4, align 4
  %106 = icmp eq i32 %105, 1
  br i1 %106, label %115, label %107

107:                                              ; preds = %104
  %108 = getelementptr inbounds [100 x i32], [100 x i32]* %1, i64 0, i64 0
  %109 = load i32, i32* %108, align 16
  %110 = load i32, i32* %4, align 4
  %111 = sext i32 %110 to i64
  %112 = getelementptr inbounds [100 x i32], [100 x i32]* %1, i64 0, i64 %111
  %113 = load i32, i32* %112, align 4
  %114 = icmp eq i32 %109, %113
  br i1 %114, label %115, label %117

115:                                              ; preds = %107, %104
  %116 = call i32 (i8*, ...) @printf(i8* getelementptr inbounds ([3 x i8], [3 x i8]* @.str, i64 0, i64 0))
  br label %141

117:                                              ; preds = %107
  store i32 1, i32* %6, align 4
  br label %118

118:                                              ; preds = %132, %117
  %119 = load i32, i32* %6, align 4
  %120 = load i32, i32* %4, align 4
  %121 = icmp slt i32 %119, %120
  br i1 %121, label %122, label %135

122:                                              ; preds = %118
  %123 = getelementptr inbounds [100 x i32], [100 x i32]* %1, i64 0, i64 0
  %124 = load i32, i32* %123, align 16
  %125 = load i32, i32* %6, align 4
  %126 = sext i32 %125 to i64
  %127 = getelementptr inbounds [100 x i32], [100 x i32]* %1, i64 0, i64 %126
  %128 = load i32, i32* %127, align 4
  %129 = icmp ne i32 %124, %128
  br i1 %129, label %130, label %131

130:                                              ; preds = %122
  br label %135

131:                                              ; preds = %122
  br label %132

132:                                              ; preds = %131
  %133 = load i32, i32* %6, align 4
  %134 = add nsw i32 %133, 1
  store i32 %134, i32* %6, align 4
  br label %118

135:                                              ; preds = %130, %118
  %136 = load i32, i32* %6, align 4
  %137 = sext i32 %136 to i64
  %138 = getelementptr inbounds [100 x i32], [100 x i32]* %1, i64 0, i64 %137
  %139 = load i32, i32* %138, align 4
  %140 = call i32 (i8*, ...) @printf(i8* getelementptr inbounds ([3 x i8], [3 x i8]* @.str.1, i64 0, i64 0), i32 %139)
  br label %141

141:                                              ; preds = %135, %115
  ret void
}

; Function Attrs: argmemonly nounwind willreturn
declare void @llvm.memset.p0i8.i64(i8* nocapture writeonly, i8, i64, i1 immarg) #1

declare dso_local i32 @gets(...) #2

declare dso_local i32 @printf(i8*, ...) #2


!llvm.module.flags = !{!0}
!llvm.ident = !{!1}

!0 = !{i32 1, !"wchar_size", i32 4}
!1 = !{!"clang version 10.0.0-4ubuntu1 "}
